; Function Attrs: mustprogress uwtable
define internal void @_ZNK12_GLOBAL__N_116itanium_demangle32ConstrainedTypeTemplateParamDecl10printRightERNS0_12OutputBufferE(ptr noundef nonnull readonly align 8 captures(none) dereferenceable(32) %0, ptr noundef nonnull align 8 dereferenceable(44) %1) unnamed_addr #2 align 2 {
  %3 = getelementptr inbounds nuw i8, ptr %0, i64 24
  %4 = load ptr, ptr %3, align 8, !tbaa !324
  %5 = load ptr, ptr %1, align 8, !tbaa !214
  %6 = getelementptr inbounds nuw i8, ptr %5, i64 16
  %7 = load ptr, ptr %6, align 8
  tail call void %7(ptr noundef nonnull align 8 dereferenceable(44) %1, ptr noundef nonnull align 8 dereferenceable(11) %4)
  %8 = getelementptr inbounds nuw i8, ptr %4, i64 9
  %9 = load i16, ptr %8, align 1
  %.mask3.i = and i16 %9, 192
  %.not.i = icmp eq i16 %.mask3.i, 64
  br i1 %.not.i, label %_ZNK12_GLOBAL__N_116itanium_demangle4Node5printERNS0_12OutputBufferE.exit, label %10

10:                                               ; preds = %2
  %11 = load ptr, ptr %1, align 8, !tbaa !214
  %12 = getelementptr inbounds nuw i8, ptr %11, i64 24
  %13 = load ptr, ptr %12, align 8
  tail call void %13(ptr noundef nonnull align 8 dereferenceable(44) %1, ptr noundef nonnull align 8 dereferenceable(11) %4)
  br label %_ZNK12_GLOBAL__N_116itanium_demangle4Node5printERNS0_12OutputBufferE.exit

_ZNK12_GLOBAL__N_116itanium_demangle4Node5printERNS0_12OutputBufferE.exit: ; preds = %2, %10
  ret void
}